target datalayout = "e-m:e-p270:32:32-p271:32:32-p272:64:64-i64:64-i128:128-f80:128-n8:16:32:64-S128"
target triple = "x86_64-pc-linux-gnu"

@_ZTIN3fmt3v1112format_errorE = linkonce_odr constant { ptr, ptr, ptr } { ptr getelementptr inbounds (ptr, ptr @_ZTVN10__cxxabiv120__si_class_type_infoE, i64 2), ptr @_ZTSN3fmt3v1112format_errorE, ptr @_ZTISt13runtime_error }, comdat, align 8

; Function Attrs: mustprogress noreturn uwtable
define void @_ZN3fmt3v1112report_errorEPKc(ptr noundef %0) #12 personality ptr @__gxx_personality_v0 {
  %2 = alloca ptr, align 8
  %3 = alloca ptr, align 8
  %4 = alloca i32, align 4
  store ptr %0, ptr %2, align 8, !tbaa !3
  %5 = call ptr @__cxa_allocate_exception(i64 16) #26
  %6 = load ptr, ptr %2, align 8, !tbaa !3
  invoke void @_ZN3fmt3v1112format_errorCI2St13runtime_errorEPKc(ptr noundef nonnull align 8 dereferenceable(16) %5, ptr noundef %6)
          to label %7 unwind label %8

7:                                                ; preds = %1
  call void @__cxa_throw(ptr %5, ptr @_ZTIN3fmt3v1112format_errorE, ptr @_ZNSt13runtime_errorD2Ev) #28
  unreachable

8:                                                ; preds = %1
  %9 = landingpad { ptr, i32 }
          cleanup
  %10 = extractvalue { ptr, i32 } %9, 0
  store ptr %10, ptr %3, align 8
  %11 = extractvalue { ptr, i32 } %9, 1
  store i32 %11, ptr %4, align 4
  call void @__cxa_free_exception(ptr %5) #26
  br label %12

12:                                               ; preds = %8
  %13 = load ptr, ptr %3, align 8
  %14 = load i32, ptr %4, align 4
  %15 = insertvalue { ptr, i32 } poison, ptr %13, 0
  %16 = insertvalue { ptr, i32 } %15, i32 %14, 1
  resume { ptr, i32 } %16
}