; Function Attrs: mustprogress noreturn uwtable
define void @_ZN3fmt3v1112report_errorEPKc(ptr noundef %0) local_unnamed_addr #10 personality ptr @__gxx_personality_v0 {
  %2 = tail call ptr @__cxa_allocate_exception(i64 16) #32
  invoke void @_ZN3fmt3v1112format_errorCI2St13runtime_errorEPKc(ptr noundef nonnull align 8 dereferenceable(16) %2, ptr noundef %0)
          to label %3 unwind label %4

3:                                                ; preds = %1
  tail call void @__cxa_throw(ptr nonnull %2, ptr nonnull @_ZTIN3fmt3v1112format_errorE, ptr nonnull @_ZNSt13runtime_errorD2Ev) #35
  unreachable

4:                                                ; preds = %1
  %5 = landingpad { ptr, i32 }
          cleanup
  tail call void @__cxa_free_exception(ptr nonnull %2) #32
  resume { ptr, i32 } %5
}